; Function Attrs: mustprogress uwtable
define internal noundef zeroext i1 @_ZZN3dap4json17JsonCppSerializer6objectERKSt8functionIFbPNS_15FieldSerializerEEEEN2FS5fieldERKNSt7__cxx1112basic_stringIcSt11char_traitsIcESaIcEEERKS2_IFbPNS_10SerializerEEE(ptr nocapture noundef nonnull readonly align 8 dereferenceable(16) %0, ptr noundef nonnull align 8 dereferenceable(32) %1, ptr noundef nonnull align 8 dereferenceable(32) %2) unnamed_addr #0 align 2 personality ptr @__gxx_personality_v0 {
  %4 = alloca ptr, align 8
  %5 = alloca %"struct.dap::json::JsonCppSerializer", align 8
  %6 = getelementptr inbounds i8, ptr %0, i64 8
  %7 = load ptr, ptr %6, align 8
  %8 = tail call noundef nonnull align 8 dereferenceable(40) ptr @_ZN4Json5ValueixERKNSt7__cxx1112basic_stringIcSt11char_traitsIcESaIcEEE(ptr noundef nonnull align 8 dereferenceable(40) %7, ptr noundef nonnull align 8 dereferenceable(32) %1)
  store ptr getelementptr inbounds ({ [13 x ptr] }, ptr @_ZTVN3dap4json17JsonCppSerializerE, i64 0, i32 0, i64 2), ptr %5, align 8
  %9 = getelementptr inbounds i8, ptr %5, i64 8
  store ptr %8, ptr %9, align 8
  %10 = getelementptr inbounds i8, ptr %5, i64 16
  store i8 0, ptr %10, align 8
  %11 = getelementptr inbounds i8, ptr %5, i64 17
  store i8 0, ptr %11, align 1
  call void @llvm.lifetime.start.p0(i64 8, ptr nonnull %4)
  store ptr %5, ptr %4, align 8
  %12 = getelementptr inbounds i8, ptr %2, i64 16
  %13 = load ptr, ptr %12, align 8
  %.not.i.i = icmp eq ptr %13, null
  br i1 %.not.i.i, label %14, label %15

14:                                               ; preds = %3
  invoke void @_ZSt25__throw_bad_function_callv() #23
          to label %.noexc unwind label %24

.noexc:                                           ; preds = %14
  unreachable

15:                                               ; preds = %3
  %16 = getelementptr inbounds i8, ptr %2, i64 24
  %17 = load ptr, ptr %16, align 8
  %18 = invoke noundef zeroext i1 %17(ptr noundef nonnull align 8 dereferenceable(16) %2, ptr noundef nonnull align 8 dereferenceable(8) %4)
          to label %19 unwind label %24

19:                                               ; preds = %15
  call void @llvm.lifetime.end.p0(i64 8, ptr nonnull %4)
  %20 = load i8, ptr %11, align 1
  %21 = and i8 %20, 1
  %.not = icmp eq i8 %21, 0
  br i1 %.not, label %26, label %22

22:                                               ; preds = %19
  %23 = load ptr, ptr %6, align 8
  invoke void @_ZN4Json5Value12removeMemberERKNSt7__cxx1112basic_stringIcSt11char_traitsIcESaIcEEE(ptr noundef nonnull align 8 dereferenceable(40) %23, ptr noundef nonnull align 8 dereferenceable(32) %1)
          to label %26 unwind label %24

24:                                               ; preds = %15, %14, %22
  %25 = landingpad { ptr, i32 }
          cleanup
  call void @_ZN3dap4json17JsonCppSerializerD2Ev(ptr noundef nonnull align 8 dereferenceable(18) %5) #21
  resume { ptr, i32 } %25

26:                                               ; preds = %22, %19
  store ptr getelementptr inbounds ({ [13 x ptr] }, ptr @_ZTVN3dap4json17JsonCppSerializerE, i64 0, i32 0, i64 2), ptr %5, align 8
  %27 = load i8, ptr %10, align 8
  %28 = and i8 %27, 1
  %.not.i = icmp eq i8 %28, 0
  br i1 %.not.i, label %_ZN3dap4json17JsonCppSerializerD2Ev.exit, label %29

29:                                               ; preds = %26
  %30 = load ptr, ptr %9, align 8
  %31 = icmp eq ptr %30, null
  br i1 %31, label %_ZN3dap4json17JsonCppSerializerD2Ev.exit, label %32

32:                                               ; preds = %29
  call void @_ZN4Json5ValueD1Ev(ptr noundef nonnull align 8 dereferenceable(40) %30) #21
  call void @_ZdlPv(ptr noundef nonnull %30) #20
  br label %_ZN3dap4json17JsonCppSerializerD2Ev.exit

_ZN3dap4json17JsonCppSerializerD2Ev.exit:         ; preds = %26, %29, %32
  ret i1 %18
}